target datalayout = "e-m:e-p270:32:32-p271:32:32-p272:64:64-i64:64-i128:128-f80:128-n8:16:32:64-S128"
target triple = "x86_64-pc-linux-gnu"

%struct.DdManager = type { %struct.DdNode, ptr, ptr, ptr, ptr, ptr, ptr, ptr, i32, i32, double, double, double, i32, i32, i32, i32, i32, i32, ptr, ptr, %struct.DdSubtable, i32, i32, i32, i32, i32, i32, i32, double, i32, i32, i32, ptr, i64, double, i32, ptr, ptr, ptr, ptr, ptr, ptr, ptr, i32, ptr, ptr, ptr, ptr, ptr, ptr, i32, i32, i32, double, i32, i32, i32, i32, double, double, i32, i32, i32, i32, i32, i32, i32, i32, i32, ptr, ptr, i32, i32, i32, i32, i32, i32, ptr, ptr, ptr, ptr, ptr, ptr, ptr, ptr, i32, i64, i64, i64, i32, i64, i64, double, double, double, double, double, double, i32, ptr, ptr, i64 }
%struct.DdNode = type { i32, i32, ptr, %union.anon, i64 }
%union.anon = type { %struct.DdChildren }
%struct.DdChildren = type { ptr, ptr }
%struct.DdSubtable = type { ptr, i32, i32, i32, i32, i32, i32, i32, i32, i32, i32, i32 }

; Function Attrs: nounwind uwtable
define i32 @cuddTestInteract(ptr noundef %0, i32 noundef %1, i32 noundef %2) #0 {
  %4 = alloca ptr, align 8
  %5 = alloca i32, align 4
  %6 = alloca i32, align 4
  %7 = alloca i32, align 4
  %8 = alloca i32, align 4
  %9 = alloca i32, align 4
  %10 = alloca i32, align 4
  %11 = alloca i32, align 4
  store ptr %0, ptr %4, align 8, !tbaa !3
  store i32 %1, ptr %5, align 4, !tbaa !8
  store i32 %2, ptr %6, align 4, !tbaa !8
  call void @llvm.lifetime.start.p0(i64 4, ptr %7) #4
  call void @llvm.lifetime.start.p0(i64 4, ptr %8) #4
  call void @llvm.lifetime.start.p0(i64 4, ptr %9) #4
  call void @llvm.lifetime.start.p0(i64 4, ptr %10) #4
  %12 = load i32, ptr %5, align 4, !tbaa !8
  %13 = load i32, ptr %6, align 4, !tbaa !8
  %14 = icmp sgt i32 %12, %13
  br i1 %14, label %15, label %19

15:                                               ; preds = %3
  call void @llvm.lifetime.start.p0(i64 4, ptr %11) #4
  %16 = load i32, ptr %5, align 4, !tbaa !8
  store i32 %16, ptr %11, align 4, !tbaa !8
  %17 = load i32, ptr %6, align 4, !tbaa !8
  store i32 %17, ptr %5, align 4, !tbaa !8
  %18 = load i32, ptr %11, align 4, !tbaa !8
  store i32 %18, ptr %6, align 4, !tbaa !8
  call void @llvm.lifetime.end.p0(i64 4, ptr %11) #4
  br label %19

19:                                               ; preds = %15, %3
  %20 = load ptr, ptr %4, align 8, !tbaa !3
  %21 = getelementptr inbounds nuw %struct.DdManager, ptr %20, i32 0, i32 15
  %22 = load i32, ptr %21, align 8, !tbaa !10
  %23 = shl i32 %22, 1
  %24 = load i32, ptr %5, align 4, !tbaa !8
  %25 = sub nsw i32 %23, %24
  %26 = sub nsw i32 %25, 3
  %27 = load i32, ptr %5, align 4, !tbaa !8
  %28 = mul nsw i32 %26, %27
  %29 = ashr i32 %28, 1
  %30 = load i32, ptr %6, align 4, !tbaa !8
  %31 = add nsw i32 %29, %30
  %32 = sub nsw i32 %31, 1
  store i32 %32, ptr %7, align 4, !tbaa !8
  %33 = load i32, ptr %7, align 4, !tbaa !8
  %34 = ashr i32 %33, 6
  store i32 %34, ptr %8, align 4, !tbaa !8
  %35 = load i32, ptr %7, align 4, !tbaa !8
  %36 = and i32 %35, 63
  store i32 %36, ptr %9, align 4, !tbaa !8
  %37 = load ptr, ptr %4, align 8, !tbaa !3
  %38 = getelementptr inbounds nuw %struct.DdManager, ptr %37, i32 0, i32 45
  %39 = load ptr, ptr %38, align 8, !tbaa !27
  %40 = load i32, ptr %8, align 4, !tbaa !8
  %41 = sext i32 %40 to i64
  %42 = getelementptr inbounds i64, ptr %39, i64 %41
  %43 = load i64, ptr %42, align 8, !tbaa !28
  %44 = load i32, ptr %9, align 4, !tbaa !8
  %45 = zext i32 %44 to i64
  %46 = ashr i64 %43, %45
  %47 = and i64 %46, 1
  %48 = trunc i64 %47 to i32
  store i32 %48, ptr %10, align 4, !tbaa !8
  %49 = load i32, ptr %10, align 4, !tbaa !8
  call void @llvm.lifetime.end.p0(i64 4, ptr %10) #4
  call void @llvm.lifetime.end.p0(i64 4, ptr %9) #4
  call void @llvm.lifetime.end.p0(i64 4, ptr %8) #4
  call void @llvm.lifetime.end.p0(i64 4, ptr %7) #4
  ret i32 %49
}