; Function Attrs: mustprogress nofree norecurse nosync nounwind willreturn memory(read, inaccessiblemem: none) uwtable
define range(i32 0, 2) i32 @cuddTestInteract(ptr noundef readonly captures(none) %0, i32 noundef %1, i32 noundef %2) local_unnamed_addr #1 {
  %spec.select = tail call i32 @llvm.smax.i32(i32 %1, i32 %2)
  %spec.select18 = tail call i32 @llvm.smin.i32(i32 %1, i32 %2)
  %4 = getelementptr inbounds nuw i8, ptr %0, i64 136
  %5 = load i32, ptr %4, align 8, !tbaa !3
  %6 = shl i32 %5, 1
  %reass.sub = sub i32 %6, %spec.select18
  %7 = add i32 %reass.sub, -3
  %8 = mul nsw i32 %7, %spec.select18
  %9 = ashr i32 %8, 1
  %10 = add i32 %spec.select, -1
  %11 = add i32 %10, %9
  %12 = ashr i32 %11, 6
  %13 = and i32 %11, 63
  %14 = getelementptr inbounds nuw i8, ptr %0, i64 376
  %15 = load ptr, ptr %14, align 8, !tbaa !24
  %16 = sext i32 %12 to i64
  %17 = getelementptr inbounds i64, ptr %15, i64 %16
  %18 = load i64, ptr %17, align 8, !tbaa !25
  %19 = zext nneg i32 %13 to i64
  %20 = lshr i64 %18, %19
  %21 = trunc i64 %20 to i32
  %22 = and i32 %21, 1
  ret i32 %22
}